; Function Attrs: mustprogress uwtable
define noundef zeroext i1 @_ZNK3net25LocalStrikeRegisterClient12IsKnownOrbitEN4base16BasicStringPieceINSt7__cxx1112basic_stringIcSt11char_traitsIcESaIcEEEEE(ptr noundef nonnull align 8 dereferenceable(104) %0, ptr readonly captures(none) %1, i64 %2) unnamed_addr #0 align 2 personality ptr @__gxx_personality_v0 {
  %4 = getelementptr inbounds nuw i8, ptr %0, i64 8
  tail call void @_ZN4base8internal8LockImpl4LockEv(ptr noundef nonnull align 8 dereferenceable(40) %4)
  %.not = icmp eq i64 %2, 8
  br i1 %.not, label %10, label %15

5:                                                ; preds = %10
  %6 = landingpad { ptr, i32 }
          cleanup
  invoke void @_ZN4base8internal8LockImpl6UnlockEv(ptr noundef nonnull align 8 dereferenceable(40) %4)
          to label %_ZN4base8AutoLockD2Ev.exit unwind label %7

7:                                                ; preds = %5
  %8 = landingpad { ptr, i32 }
          catch ptr null
  %9 = extractvalue { ptr, i32 } %8, 0
  tail call void @__clang_call_terminate(ptr %9) #9
  unreachable

_ZN4base8AutoLockD2Ev.exit:                       ; preds = %5
  resume { ptr, i32 } %6

10:                                               ; preds = %3
  %11 = getelementptr inbounds nuw i8, ptr %0, i64 48
  %12 = invoke noundef ptr @_ZNK3net14StrikeRegister5orbitEv(ptr noundef nonnull align 8 dereferenceable(56) %11)
          to label %13 unwind label %5

13:                                               ; preds = %10
  %bcmp = tail call i32 @bcmp(ptr noundef nonnull dereferenceable(8) %1, ptr noundef nonnull dereferenceable(8) %12, i64 8)
  %14 = icmp eq i32 %bcmp, 0
  br label %15

15:                                               ; preds = %3, %13
  %.0 = phi i1 [ %14, %13 ], [ false, %3 ]
  invoke void @_ZN4base8internal8LockImpl6UnlockEv(ptr noundef nonnull align 8 dereferenceable(40) %4)
          to label %_ZN4base8AutoLockD2Ev.exit3 unwind label %16

16:                                               ; preds = %15
  %17 = landingpad { ptr, i32 }
          catch ptr null
  %18 = extractvalue { ptr, i32 } %17, 0
  tail call void @__clang_call_terminate(ptr %18) #9
  unreachable

_ZN4base8AutoLockD2Ev.exit3:                      ; preds = %15
  ret i1 %.0
}